target datalayout = "e-m:e-p270:32:32-p271:32:32-p272:64:64-i64:64-i128:128-f80:128-n8:16:32:64-S128"
target triple = "x86_64-pc-linux-gnu"

%"class.pybind11::object" = type { %"class.pybind11::handle" }
%"class.pybind11::handle" = type { ptr }
%"class.pybind11::module_" = type { %"class.pybind11::object" }
%"class.pybind11::enum_" = type { %"class.pybind11::class_", %"struct.pybind11::detail::enum_base" }
%"class.pybind11::class_" = type { %"class.pybind11::detail::generic_type" }
%"class.pybind11::detail::generic_type" = type { %"class.pybind11::object" }
%"struct.pybind11::detail::enum_base" = type { %"class.pybind11::handle", %"class.pybind11::handle" }
%"class.pybind11::class_.1" = type { %"class.pybind11::detail::generic_type" }

@.str = private unnamed_addr constant [14 x i8] c"robust_kernel\00", align 1
@.str.3 = private unnamed_addr constant [50 x i8] c"Tensor-based robust kernel for outlier rejection.\00", align 1
@.str.4 = private unnamed_addr constant [19 x i8] c"RobustKernelMethod\00", align 1
@.str.5 = private unnamed_addr constant [44 x i8] c"Robust kernel method for outlier rejection.\00", align 1
@.str.6 = private unnamed_addr constant [7 x i8] c"L2Loss\00", align 1
@.str.7 = private unnamed_addr constant [7 x i8] c"L1Loss\00", align 1
@.str.8 = private unnamed_addr constant [10 x i8] c"HuberLoss\00", align 1
@.str.9 = private unnamed_addr constant [11 x i8] c"CauchyLoss\00", align 1
@.str.10 = private unnamed_addr constant [7 x i8] c"GMLoss\00", align 1
@.str.11 = private unnamed_addr constant [10 x i8] c"TukeyLoss\00", align 1
@.str.12 = private unnamed_addr constant [16 x i8] c"GeneralizedLoss\00", align 1
@.str.13 = private unnamed_addr constant [13 x i8] c"RobustKernel\00", align 1

; Function Attrs: mustprogress ssp uwtable
define linkonce_odr hidden noundef nonnull align 8 dereferenceable(24) ptr @_ZN8pybind115enum_IN6open3d1t9pipelines12registration18RobustKernelMethodEE13export_valuesEv(ptr noundef nonnull align 8 dereferenceable(24) %0) #4 comdat align 2 !type !162 {
  %2 = alloca ptr, align 8
  store ptr %0, ptr %2, align 8, !tbaa !154
  %3 = load ptr, ptr %2, align 8
  %4 = getelementptr inbounds nuw %"class.pybind11::enum_", ptr %3, i32 0, i32 1
  call void @_ZN8pybind116detail9enum_base13export_valuesEv(ptr noundef nonnull align 8 dereferenceable(16) %4)
  ret ptr %3
}

; Function Attrs: mustprogress ssp uwtable
define hidden void @_ZN6open3d1t9pipelines12registration33pybind_robust_kernel_declarationsERN8pybind117module_E(ptr noundef nonnull align 8 dereferenceable(8) %0) #4 personality ptr @__gxx_personality_v0 {
  %2 = alloca ptr, align 8
  %3 = alloca %"class.pybind11::module_", align 8
  %4 = alloca %"class.pybind11::enum_", align 8
  %5 = alloca ptr, align 8
  %6 = alloca i32, align 4
  %7 = alloca %"class.pybind11::class_.1", align 8
  %8 = alloca %"class.pybind11::handle", align 8
  store ptr %0, ptr %2, align 8, !tbaa !149
  call void @llvm.lifetime.start.p0(i64 8, ptr %3) #25
  %9 = load ptr, ptr %2, align 8, !tbaa !149
  call void @_ZN8pybind117module_13def_submoduleEPKcS2_(ptr dead_on_unwind writable sret(%"class.pybind11::module_") align 8 %3, ptr noundef nonnull align 8 dereferenceable(8) %9, ptr noundef @.str, ptr noundef @.str.3)
  call void @llvm.lifetime.start.p0(i64 24, ptr %4) #25
  invoke void @_ZN8pybind115enum_IN6open3d1t9pipelines12registration18RobustKernelMethodEEC2IJA44_cEEERKNS_6handleEPKcDpRKT_(ptr noundef nonnull align 8 dereferenceable(24) %4, ptr noundef nonnull align 8 dereferenceable(8) %3, ptr noundef @.str.4, ptr noundef nonnull align 1 dereferenceable(44) @.str.5)
          to label %10 unwind label %30

10:                                               ; preds = %1
  %11 = invoke noundef nonnull align 8 dereferenceable(24) ptr @_ZN8pybind115enum_IN6open3d1t9pipelines12registration18RobustKernelMethodEE5valueEPKcS5_S8_(ptr noundef nonnull align 8 dereferenceable(24) %4, ptr noundef @.str.6, i32 noundef 0, ptr noundef null)
          to label %12 unwind label %34

12:                                               ; preds = %10
  %13 = invoke noundef nonnull align 8 dereferenceable(24) ptr @_ZN8pybind115enum_IN6open3d1t9pipelines12registration18RobustKernelMethodEE5valueEPKcS5_S8_(ptr noundef nonnull align 8 dereferenceable(24) %11, ptr noundef @.str.7, i32 noundef 1, ptr noundef null)
          to label %14 unwind label %34

14:                                               ; preds = %12
  %15 = invoke noundef nonnull align 8 dereferenceable(24) ptr @_ZN8pybind115enum_IN6open3d1t9pipelines12registration18RobustKernelMethodEE5valueEPKcS5_S8_(ptr noundef nonnull align 8 dereferenceable(24) %13, ptr noundef @.str.8, i32 noundef 2, ptr noundef null)
          to label %16 unwind label %34

16:                                               ; preds = %14
  %17 = invoke noundef nonnull align 8 dereferenceable(24) ptr @_ZN8pybind115enum_IN6open3d1t9pipelines12registration18RobustKernelMethodEE5valueEPKcS5_S8_(ptr noundef nonnull align 8 dereferenceable(24) %15, ptr noundef @.str.9, i32 noundef 3, ptr noundef null)
          to label %18 unwind label %34

18:                                               ; preds = %16
  %19 = invoke noundef nonnull align 8 dereferenceable(24) ptr @_ZN8pybind115enum_IN6open3d1t9pipelines12registration18RobustKernelMethodEE5valueEPKcS5_S8_(ptr noundef nonnull align 8 dereferenceable(24) %17, ptr noundef @.str.10, i32 noundef 4, ptr noundef null)
          to label %20 unwind label %34

20:                                               ; preds = %18
  %21 = invoke noundef nonnull align 8 dereferenceable(24) ptr @_ZN8pybind115enum_IN6open3d1t9pipelines12registration18RobustKernelMethodEE5valueEPKcS5_S8_(ptr noundef nonnull align 8 dereferenceable(24) %19, ptr noundef @.str.11, i32 noundef 5, ptr noundef null)
          to label %22 unwind label %34

22:                                               ; preds = %20
  %23 = invoke noundef nonnull align 8 dereferenceable(24) ptr @_ZN8pybind115enum_IN6open3d1t9pipelines12registration18RobustKernelMethodEE5valueEPKcS5_S8_(ptr noundef nonnull align 8 dereferenceable(24) %21, ptr noundef @.str.12, i32 noundef 6, ptr noundef null)
          to label %24 unwind label %34

24:                                               ; preds = %22
  %25 = invoke noundef nonnull align 8 dereferenceable(24) ptr @_ZN8pybind115enum_IN6open3d1t9pipelines12registration18RobustKernelMethodEE13export_valuesEv(ptr noundef nonnull align 8 dereferenceable(24) %23)
          to label %26 unwind label %34

26:                                               ; preds = %24
  call void @_ZN8pybind116objectD2Ev(ptr noundef nonnull align 8 dereferenceable(24) %4) #25
  call void @llvm.lifetime.end.p0(i64 24, ptr %4) #25
  call void @llvm.lifetime.start.p0(i64 8, ptr %7) #25
  call void @llvm.memcpy.p0.p0.i64(ptr align 8 %8, ptr align 8 %3, i64 8, i1 false)
  %27 = getelementptr inbounds nuw %"class.pybind11::handle", ptr %8, i32 0, i32 0
  %28 = load ptr, ptr %27, align 8
  invoke void @_ZN8pybind116class_IN6open3d1t9pipelines12registration12RobustKernelEJEEC2IJA2770_cEEENS_6handleEPKcDpRKT_(ptr noundef nonnull align 8 dereferenceable(8) %7, ptr %28, ptr noundef @.str.13, ptr noundef nonnull align 1 dereferenceable(2770) @.str.14)
          to label %29 unwind label %39

29:                                               ; preds = %26
  call void @_ZN8pybind116objectD2Ev(ptr noundef nonnull align 8 dereferenceable(8) %7) #25
  call void @llvm.lifetime.end.p0(i64 8, ptr %7) #25
  call void @_ZN8pybind116objectD2Ev(ptr noundef nonnull align 8 dereferenceable(8) %3) #25
  call void @llvm.lifetime.end.p0(i64 8, ptr %3) #25
  ret void

30:                                               ; preds = %1
  %31 = landingpad { ptr, i32 }
          cleanup
  %32 = extractvalue { ptr, i32 } %31, 0
  store ptr %32, ptr %5, align 8
  %33 = extractvalue { ptr, i32 } %31, 1
  store i32 %33, ptr %6, align 4
  br label %38

34:                                               ; preds = %24, %22, %20, %18, %16, %14, %12, %10
  %35 = landingpad { ptr, i32 }
          cleanup
  %36 = extractvalue { ptr, i32 } %35, 0
  store ptr %36, ptr %5, align 8
  %37 = extractvalue { ptr, i32 } %35, 1
  store i32 %37, ptr %6, align 4
  call void @_ZN8pybind116objectD2Ev(ptr noundef nonnull align 8 dereferenceable(24) %4) #25
  br label %38

38:                                               ; preds = %34, %30
  call void @llvm.lifetime.end.p0(i64 24, ptr %4) #25
  br label %43

39:                                               ; preds = %26
  %40 = landingpad { ptr, i32 }
          cleanup
  %41 = extractvalue { ptr, i32 } %40, 0
  store ptr %41, ptr %5, align 8
  %42 = extractvalue { ptr, i32 } %40, 1
  store i32 %42, ptr %6, align 4
  call void @llvm.lifetime.end.p0(i64 8, ptr %7) #25
  br label %43

43:                                               ; preds = %39, %38
  call void @_ZN8pybind116objectD2Ev(ptr noundef nonnull align 8 dereferenceable(8) %3) #25
  call void @llvm.lifetime.end.p0(i64 8, ptr %3) #25
  br label %44

44:                                               ; preds = %43
  %45 = load ptr, ptr %5, align 8
  %46 = load i32, ptr %6, align 4
  %47 = insertvalue { ptr, i32 } poison, ptr %45, 0
  %48 = insertvalue { ptr, i32 } %47, i32 %46, 1
  resume { ptr, i32 } %48
}