; Function Attrs: mustprogress ssp uwtable
define hidden void @_ZN6open3d1t9pipelines12registration33pybind_robust_kernel_declarationsERN8pybind117module_E(ptr noundef nonnull align 8 dereferenceable(8) %0) local_unnamed_addr #5 personality ptr @__gxx_personality_v0 {
  %2 = alloca %"class.pybind11::module_", align 8
  %3 = alloca %"class.pybind11::enum_", align 8
  %4 = alloca %"class.pybind11::class_.1", align 8
  call void @llvm.lifetime.start.p0(i64 8, ptr nonnull %2) #32
  call void @_ZN8pybind117module_13def_submoduleEPKcS2_(ptr dead_on_unwind nonnull writable sret(%"class.pybind11::module_") align 8 %2, ptr noundef nonnull align 8 dereferenceable(8) %0, ptr noundef nonnull @.str, ptr noundef nonnull @.str.3)
  call void @llvm.lifetime.start.p0(i64 24, ptr nonnull %3) #32
  invoke void @_ZN8pybind115enum_IN6open3d1t9pipelines12registration18RobustKernelMethodEEC2IJA44_cEEERKNS_6handleEPKcDpRKT_(ptr noundef nonnull align 8 dereferenceable(24) %3, ptr noundef nonnull align 8 dereferenceable(8) %2, ptr noundef nonnull @.str.4, ptr noundef nonnull align 1 dereferenceable(44) @.str.5)
          to label %5 unwind label %55

5:                                                ; preds = %1
  %6 = invoke noundef nonnull align 8 dereferenceable(24) ptr @_ZN8pybind115enum_IN6open3d1t9pipelines12registration18RobustKernelMethodEE5valueEPKcS5_S8_(ptr noundef nonnull align 8 dereferenceable(24) %3, ptr noundef nonnull @.str.6, i32 noundef 0, ptr noundef null)
          to label %7 unwind label %57

7:                                                ; preds = %5
  %8 = invoke noundef nonnull align 8 dereferenceable(24) ptr @_ZN8pybind115enum_IN6open3d1t9pipelines12registration18RobustKernelMethodEE5valueEPKcS5_S8_(ptr noundef nonnull align 8 dereferenceable(24) %6, ptr noundef nonnull @.str.7, i32 noundef 1, ptr noundef null)
          to label %9 unwind label %57

9:                                                ; preds = %7
  %10 = invoke noundef nonnull align 8 dereferenceable(24) ptr @_ZN8pybind115enum_IN6open3d1t9pipelines12registration18RobustKernelMethodEE5valueEPKcS5_S8_(ptr noundef nonnull align 8 dereferenceable(24) %8, ptr noundef nonnull @.str.8, i32 noundef 2, ptr noundef null)
          to label %11 unwind label %57

11:                                               ; preds = %9
  %12 = invoke noundef nonnull align 8 dereferenceable(24) ptr @_ZN8pybind115enum_IN6open3d1t9pipelines12registration18RobustKernelMethodEE5valueEPKcS5_S8_(ptr noundef nonnull align 8 dereferenceable(24) %10, ptr noundef nonnull @.str.9, i32 noundef 3, ptr noundef null)
          to label %13 unwind label %57

13:                                               ; preds = %11
  %14 = invoke noundef nonnull align 8 dereferenceable(24) ptr @_ZN8pybind115enum_IN6open3d1t9pipelines12registration18RobustKernelMethodEE5valueEPKcS5_S8_(ptr noundef nonnull align 8 dereferenceable(24) %12, ptr noundef nonnull @.str.10, i32 noundef 4, ptr noundef null)
          to label %15 unwind label %57

15:                                               ; preds = %13
  %16 = invoke noundef nonnull align 8 dereferenceable(24) ptr @_ZN8pybind115enum_IN6open3d1t9pipelines12registration18RobustKernelMethodEE5valueEPKcS5_S8_(ptr noundef nonnull align 8 dereferenceable(24) %14, ptr noundef nonnull @.str.11, i32 noundef 5, ptr noundef null)
          to label %17 unwind label %57

17:                                               ; preds = %15
  %18 = invoke noundef nonnull align 8 dereferenceable(24) ptr @_ZN8pybind115enum_IN6open3d1t9pipelines12registration18RobustKernelMethodEE5valueEPKcS5_S8_(ptr noundef nonnull align 8 dereferenceable(24) %16, ptr noundef nonnull @.str.12, i32 noundef 6, ptr noundef null)
          to label %19 unwind label %57

19:                                               ; preds = %17
  %20 = getelementptr inbounds nuw i8, ptr %18, i64 8
  invoke void @_ZN8pybind116detail9enum_base13export_valuesEv(ptr noundef nonnull align 8 dereferenceable(16) %20)
          to label %_ZN8pybind115enum_IN6open3d1t9pipelines12registration18RobustKernelMethodEE13export_valuesEv.exit unwind label %57

_ZN8pybind115enum_IN6open3d1t9pipelines12registration18RobustKernelMethodEE13export_valuesEv.exit: ; preds = %19
  %21 = load ptr, ptr %3, align 8, !tbaa !136
  %.not.i.i.i = icmp eq ptr %21, null
  br i1 %.not.i.i.i, label %_ZN8pybind116objectD2Ev.exit, label %22

22:                                               ; preds = %_ZN8pybind115enum_IN6open3d1t9pipelines12registration18RobustKernelMethodEE13export_valuesEv.exit
  %23 = load i64, ptr %21, align 8, !tbaa !135
  %24 = and i64 %23, 2147483648
  %.not2.i.i.i = icmp eq i64 %24, 0
  br i1 %.not2.i.i.i, label %25, label %_ZN8pybind116objectD2Ev.exit

25:                                               ; preds = %22
  %26 = add nsw i64 %23, -1
  store i64 %26, ptr %21, align 8, !tbaa !135
  %27 = icmp eq i64 %26, 0
  br i1 %27, label %28, label %_ZN8pybind116objectD2Ev.exit

28:                                               ; preds = %25
  invoke void @_Py_Dealloc(ptr noundef nonnull %21)
          to label %_ZN8pybind116objectD2Ev.exit unwind label %29

29:                                               ; preds = %28
  %30 = landingpad { ptr, i32 }
          catch ptr null
  %31 = extractvalue { ptr, i32 } %30, 0
  call void @__clang_call_terminate(ptr %31) #33
  unreachable

_ZN8pybind116objectD2Ev.exit:                     ; preds = %_ZN8pybind115enum_IN6open3d1t9pipelines12registration18RobustKernelMethodEE13export_valuesEv.exit, %22, %25, %28
  call void @llvm.lifetime.end.p0(i64 24, ptr nonnull %3) #32
  call void @llvm.lifetime.start.p0(i64 8, ptr nonnull %4) #32
  %.sroa.0.0.copyload = load ptr, ptr %2, align 8
  invoke void @_ZN8pybind116class_IN6open3d1t9pipelines12registration12RobustKernelEJEEC2IJA2770_cEEENS_6handleEPKcDpRKT_(ptr noundef nonnull align 8 dereferenceable(8) %4, ptr %.sroa.0.0.copyload, ptr noundef nonnull @.str.13, ptr noundef nonnull align 1 dereferenceable(2770) @.str.14)
          to label %32 unwind label %60

32:                                               ; preds = %_ZN8pybind116objectD2Ev.exit
  %33 = load ptr, ptr %4, align 8, !tbaa !136
  %.not.i.i.i7 = icmp eq ptr %33, null
  br i1 %.not.i.i.i7, label %_ZN8pybind116objectD2Ev.exit9, label %34

34:                                               ; preds = %32
  %35 = load i64, ptr %33, align 8, !tbaa !135
  %36 = and i64 %35, 2147483648
  %.not2.i.i.i8 = icmp eq i64 %36, 0
  br i1 %.not2.i.i.i8, label %37, label %_ZN8pybind116objectD2Ev.exit9

37:                                               ; preds = %34
  %38 = add nsw i64 %35, -1
  store i64 %38, ptr %33, align 8, !tbaa !135
  %39 = icmp eq i64 %38, 0
  br i1 %39, label %40, label %_ZN8pybind116objectD2Ev.exit9

40:                                               ; preds = %37
  invoke void @_Py_Dealloc(ptr noundef nonnull %33)
          to label %_ZN8pybind116objectD2Ev.exit9 unwind label %41

41:                                               ; preds = %40
  %42 = landingpad { ptr, i32 }
          catch ptr null
  %43 = extractvalue { ptr, i32 } %42, 0
  call void @__clang_call_terminate(ptr %43) #33
  unreachable

_ZN8pybind116objectD2Ev.exit9:                    ; preds = %32, %34, %37, %40
  call void @llvm.lifetime.end.p0(i64 8, ptr nonnull %4) #32
  %44 = load ptr, ptr %2, align 8, !tbaa !136
  %.not.i.i.i10 = icmp eq ptr %44, null
  br i1 %.not.i.i.i10, label %_ZN8pybind116objectD2Ev.exit12, label %45

45:                                               ; preds = %_ZN8pybind116objectD2Ev.exit9
  %46 = load i64, ptr %44, align 8, !tbaa !135
  %47 = and i64 %46, 2147483648
  %.not2.i.i.i11 = icmp eq i64 %47, 0
  br i1 %.not2.i.i.i11, label %48, label %_ZN8pybind116objectD2Ev.exit12

48:                                               ; preds = %45
  %49 = add nsw i64 %46, -1
  store i64 %49, ptr %44, align 8, !tbaa !135
  %50 = icmp eq i64 %49, 0
  br i1 %50, label %51, label %_ZN8pybind116objectD2Ev.exit12

51:                                               ; preds = %48
  invoke void @_Py_Dealloc(ptr noundef nonnull %44)
          to label %_ZN8pybind116objectD2Ev.exit12 unwind label %52

52:                                               ; preds = %51
  %53 = landingpad { ptr, i32 }
          catch ptr null
  %54 = extractvalue { ptr, i32 } %53, 0
  call void @__clang_call_terminate(ptr %54) #33
  unreachable

_ZN8pybind116objectD2Ev.exit12:                   ; preds = %_ZN8pybind116objectD2Ev.exit9, %45, %48, %51
  call void @llvm.lifetime.end.p0(i64 8, ptr nonnull %2) #32
  ret void

55:                                               ; preds = %1
  %56 = landingpad { ptr, i32 }
          cleanup
  br label %59

57:                                               ; preds = %19, %17, %15, %13, %11, %9, %7, %5
  %58 = landingpad { ptr, i32 }
          cleanup
  call void @_ZN8pybind116objectD2Ev(ptr noundef nonnull align 8 dereferenceable(24) %3) #32
  br label %59

59:                                               ; preds = %57, %55
  %.pn = phi { ptr, i32 } [ %58, %57 ], [ %56, %55 ]
  call void @llvm.lifetime.end.p0(i64 24, ptr nonnull %3) #32
  br label %62

60:                                               ; preds = %_ZN8pybind116objectD2Ev.exit
  %61 = landingpad { ptr, i32 }
          cleanup
  call void @llvm.lifetime.end.p0(i64 8, ptr nonnull %4) #32
  br label %62

62:                                               ; preds = %60, %59
  %.pn5 = phi { ptr, i32 } [ %61, %60 ], [ %.pn, %59 ]
  call void @_ZN8pybind116objectD2Ev(ptr noundef nonnull align 8 dereferenceable(8) %2) #32
  call void @llvm.lifetime.end.p0(i64 8, ptr nonnull %2) #32
  resume { ptr, i32 } %.pn5
}